; Function Attrs: mustprogress uwtable
define dso_local void @_ZN9cmProcess6FinishEv(ptr noundef nonnull align 8 captures(none) dereferenceable(316) initializes((32, 40)) %0) local_unnamed_addr #3 align 2 personality ptr @__gxx_personality_v0 {
  %2 = tail call i64 @_ZNSt6chrono3_V212steady_clock3nowEv() #18
  %3 = getelementptr inbounds nuw i8, ptr %0, i64 24
  %.sroa.0.0.copyload.i2.i = load i64, ptr %3, align 8
  %4 = sub nsw i64 %2, %.sroa.0.0.copyload.i2.i
  %5 = sitofp i64 %4 to double
  %6 = fdiv double %5, 1.000000e+09
  %.inv = fcmp ogt double %6, 0.000000e+00
  %storemerge = select i1 %.inv, double %6, double 0.000000e+00
  %7 = getelementptr inbounds nuw i8, ptr %0, i64 32
  store double %storemerge, ptr %7, align 8
  %8 = getelementptr inbounds nuw i8, ptr %0, i64 120
  %9 = load ptr, ptr %8, align 8
  tail call void @_ZN14cmCTestRunTest12FinalizeTestEb(ptr noundef nonnull align 8 dereferenceable(640) %9, i1 noundef zeroext true)
  ret void
}